target datalayout = "e-m:e-p270:32:32-p271:32:32-p272:64:64-i64:64-i128:128-f80:128-n8:16:32:64-S128"
target triple = "x86_64-pc-linux-gnu"

%struct.parse_opt_ctx_t = type { ptr, ptr, i32, i32, i32, ptr, i32, i32, ptr, ptr, ptr }

@.str.8 = private unnamed_addr constant [20 x i8] c"unknown option `%s'\00", align 1

; Function Attrs: inlinehint nounwind uwtable
define internal i32 @const_error() #4 {
  ret i32 -1
}

; Function Attrs: nounwind uwtable
define dso_local void @parse_revision_opt(ptr noundef %0, ptr noundef %1, ptr noundef %2, ptr noundef %3) #0 {
  %5 = alloca ptr, align 8
  %6 = alloca ptr, align 8
  %7 = alloca ptr, align 8
  %8 = alloca ptr, align 8
  %9 = alloca i32, align 4
  store ptr %0, ptr %5, align 8, !tbaa !88
  store ptr %1, ptr %6, align 8, !tbaa !241
  store ptr %2, ptr %7, align 8, !tbaa !243
  store ptr %3, ptr %8, align 8, !tbaa !17
  call void @llvm.lifetime.start.p0(i64 4, ptr %9) #12
  %10 = load ptr, ptr %5, align 8, !tbaa !88
  %11 = load ptr, ptr %6, align 8, !tbaa !241
  %12 = getelementptr inbounds nuw %struct.parse_opt_ctx_t, ptr %11, i32 0, i32 2
  %13 = load i32, ptr %12, align 8, !tbaa !245
  %14 = load ptr, ptr %6, align 8, !tbaa !241
  %15 = getelementptr inbounds nuw %struct.parse_opt_ctx_t, ptr %14, i32 0, i32 0
  %16 = load ptr, ptr %15, align 8, !tbaa !248
  %17 = load ptr, ptr %6, align 8, !tbaa !241
  %18 = getelementptr inbounds nuw %struct.parse_opt_ctx_t, ptr %17, i32 0, i32 3
  %19 = load ptr, ptr %6, align 8, !tbaa !241
  %20 = getelementptr inbounds nuw %struct.parse_opt_ctx_t, ptr %19, i32 0, i32 1
  %21 = load ptr, ptr %20, align 8, !tbaa !249
  %22 = call i32 @handle_revision_opt(ptr noundef %10, i32 noundef %13, ptr noundef %16, ptr noundef %18, ptr noundef %21, ptr noundef null)
  store i32 %22, ptr %9, align 4, !tbaa !9
  %23 = load i32, ptr %9, align 4, !tbaa !9
  %24 = icmp sle i32 %23, 0
  br i1 %24, label %25, label %35

25:                                               ; preds = %4
  %26 = load ptr, ptr %6, align 8, !tbaa !241
  %27 = getelementptr inbounds nuw %struct.parse_opt_ctx_t, ptr %26, i32 0, i32 0
  %28 = load ptr, ptr %27, align 8, !tbaa !248
  %29 = getelementptr inbounds ptr, ptr %28, i64 0
  %30 = load ptr, ptr %29, align 8, !tbaa !39
  %31 = call i32 (ptr, ...) @error(ptr noundef @.str.8, ptr noundef %30)
  %32 = call i32 @const_error()
  %33 = load ptr, ptr %8, align 8, !tbaa !17
  %34 = load ptr, ptr %7, align 8, !tbaa !243
  call void @usage_with_options(ptr noundef %33, ptr noundef %34) #13
  unreachable

35:                                               ; preds = %4
  %36 = load i32, ptr %9, align 4, !tbaa !9
  %37 = load ptr, ptr %6, align 8, !tbaa !241
  %38 = getelementptr inbounds nuw %struct.parse_opt_ctx_t, ptr %37, i32 0, i32 0
  %39 = load ptr, ptr %38, align 8, !tbaa !248
  %40 = sext i32 %36 to i64
  %41 = getelementptr inbounds ptr, ptr %39, i64 %40
  store ptr %41, ptr %38, align 8, !tbaa !248
  %42 = load i32, ptr %9, align 4, !tbaa !9
  %43 = load ptr, ptr %6, align 8, !tbaa !241
  %44 = getelementptr inbounds nuw %struct.parse_opt_ctx_t, ptr %43, i32 0, i32 2
  %45 = load i32, ptr %44, align 8, !tbaa !245
  %46 = sub nsw i32 %45, %42
  store i32 %46, ptr %44, align 8, !tbaa !245
  call void @llvm.lifetime.end.p0(i64 4, ptr %9) #12
  ret void
}