; Function Attrs: nounwind uwtable
define dso_local void @parse_revision_opt(ptr noundef %0, ptr noundef captures(none) %1, ptr noundef %2, ptr noundef %3) local_unnamed_addr #2 {
  %5 = getelementptr inbounds nuw i8, ptr %1, i64 16
  %6 = load i32, ptr %5, align 8, !tbaa !202
  %7 = load ptr, ptr %1, align 8, !tbaa !205
  %8 = getelementptr inbounds nuw i8, ptr %1, i64 20
  %9 = getelementptr inbounds nuw i8, ptr %1, i64 8
  %10 = load ptr, ptr %9, align 8, !tbaa !206
  %11 = tail call fastcc i32 @handle_revision_opt(ptr noundef %0, i32 noundef %6, ptr noundef %7, ptr noundef nonnull %8, ptr noundef %10, ptr noundef null)
  %12 = icmp slt i32 %11, 1
  %13 = load ptr, ptr %1, align 8, !tbaa !205
  br i1 %12, label %14, label %17

14:                                               ; preds = %4
  %15 = load ptr, ptr %13, align 8, !tbaa !200
  %16 = tail call i32 (ptr, ...) @error(ptr noundef nonnull @.str.8, ptr noundef %15) #26
  tail call void @usage_with_options(ptr noundef %3, ptr noundef %2) #28
  unreachable

17:                                               ; preds = %4
  %18 = zext nneg i32 %11 to i64
  %19 = getelementptr inbounds nuw ptr, ptr %13, i64 %18
  store ptr %19, ptr %1, align 8, !tbaa !205
  %20 = load i32, ptr %5, align 8, !tbaa !202
  %21 = sub nsw i32 %20, %11
  store i32 %21, ptr %5, align 8, !tbaa !202
  ret void
}